; Function Attrs: mustprogress uwtable
define void @_ZN32pxrInternal_v0_24__pxrReserved__14UsdLuxLightAPI11CreateInputERKNS_7TfTokenERKNS_16SdfValueTypeNameE(ptr dead_on_unwind noalias writable sret(%"class.pxrInternal_v0_24__pxrReserved__::UsdShadeInput") align 8 %0, ptr noundef nonnull align 8 dereferenceable(32) %1, ptr noundef nonnull align 8 dereferenceable(8) %2, ptr noundef nonnull align 8 dereferenceable(8) %3) local_unnamed_addr #0 align 2 personality ptr @__gxx_personality_v0 {
  %5 = alloca %"class.pxrInternal_v0_24__pxrReserved__::UsdShadeConnectableAPI", align 8
  %6 = alloca %"class.pxrInternal_v0_24__pxrReserved__::UsdPrim", align 8
  %7 = getelementptr inbounds nuw i8, ptr %1, i64 8
  %8 = getelementptr inbounds nuw i8, ptr %1, i64 16
  call void @_ZN32pxrInternal_v0_24__pxrReserved__9UsdObjectC2ERKNS_18Usd_PrimDataHandleERKNS_7SdfPathE(ptr noundef nonnull align 8 dereferenceable(32) %6, ptr noundef nonnull align 8 dereferenceable(8) %7, ptr noundef nonnull align 4 dereferenceable(8) %8)
  invoke void @_ZN32pxrInternal_v0_24__pxrReserved__13UsdSchemaBaseC2ERKNS_7UsdPrimE(ptr noundef nonnull align 8 dereferenceable(32) %5, ptr noundef nonnull align 8 dereferenceable(32) %6)
          to label %9 unwind label %45

9:                                                ; preds = %4
  %10 = getelementptr inbounds nuw i8, ptr %5, i64 24
  store ptr null, ptr %10, align 8
  store ptr getelementptr inbounds nuw inrange(-16, 48) (i8, ptr @_ZTVN32pxrInternal_v0_24__pxrReserved__22UsdShadeConnectableAPIE, i64 16), ptr %5, align 8
  invoke void @_ZNK32pxrInternal_v0_24__pxrReserved__22UsdShadeConnectableAPI11CreateInputERKNS_7TfTokenERKNS_16SdfValueTypeNameE(ptr dead_on_unwind writable sret(%"class.pxrInternal_v0_24__pxrReserved__::UsdShadeInput") align 8 %0, ptr noundef nonnull align 8 dereferenceable(32) %5, ptr noundef nonnull align 8 dereferenceable(8) %2, ptr noundef nonnull align 8 dereferenceable(8) %3)
          to label %11 unwind label %47

11:                                               ; preds = %9
  call void @_ZN32pxrInternal_v0_24__pxrReserved__22UsdShadeConnectableAPID1Ev(ptr noundef nonnull align 8 dereferenceable(32) %5) #15
  %12 = getelementptr inbounds nuw i8, ptr %6, i64 24
  %13 = load ptr, ptr %12, align 8
  %14 = ptrtoint ptr %13 to i64
  %15 = and i64 %14, 7
  %.not.i.i.i.i = icmp eq i64 %15, 0
  br i1 %.not.i.i.i.i, label %_ZN32pxrInternal_v0_24__pxrReserved__7TfTokenD2Ev.exit.i.i, label %16

16:                                               ; preds = %11
  %17 = and i64 %14, -8
  %18 = inttoptr i64 %17 to ptr
  %19 = atomicrmw sub ptr %18, i32 2 release, align 4
  br label %_ZN32pxrInternal_v0_24__pxrReserved__7TfTokenD2Ev.exit.i.i

_ZN32pxrInternal_v0_24__pxrReserved__7TfTokenD2Ev.exit.i.i: ; preds = %16, %11
  %20 = getelementptr inbounds nuw i8, ptr %6, i64 16
  %21 = load i32, ptr %20, align 8
  %.not.i.i1.i.i = icmp eq i32 %21, 0
  br i1 %.not.i.i1.i.i, label %_ZN32pxrInternal_v0_24__pxrReserved__7SdfPathD2Ev.exit.i.i, label %22

22:                                               ; preds = %_ZN32pxrInternal_v0_24__pxrReserved__7TfTokenD2Ev.exit.i.i
  %23 = and i32 %21, 255
  %24 = lshr i32 %21, 8
  %25 = zext nneg i32 %23 to i64
  %26 = getelementptr inbounds nuw [257 x ptr], ptr @_ZN32pxrInternal_v0_24__pxrReserved__8Sdf_PoolINS_15Sdf_PathPrimTagELj24ELj8ELj16384EE13_regionStartsE, i64 0, i64 %25
  %27 = load ptr, ptr %26, align 8
  %28 = mul nuw nsw i32 %24, 24
  %29 = zext nneg i32 %28 to i64
  %30 = getelementptr inbounds nuw i8, ptr %27, i64 %29
  %31 = getelementptr inbounds nuw i8, ptr %30, i64 8
  %32 = atomicrmw sub ptr %31, i32 1 seq_cst, align 4
  %33 = and i32 %32, 2147483647
  %34 = icmp eq i32 %33, 1
  br i1 %34, label %35, label %_ZN32pxrInternal_v0_24__pxrReserved__7SdfPathD2Ev.exit.i.i

35:                                               ; preds = %22
  invoke void @_ZNK32pxrInternal_v0_24__pxrReserved__12Sdf_PathNode8_DestroyEv(ptr noundef nonnull align 8 dereferenceable(16) %30)
          to label %_ZN32pxrInternal_v0_24__pxrReserved__7SdfPathD2Ev.exit.i.i unwind label %36

36:                                               ; preds = %35
  %37 = landingpad { ptr, i32 }
          catch ptr null
  %38 = extractvalue { ptr, i32 } %37, 0
  call void @__clang_call_terminate(ptr %38) #17
  unreachable

_ZN32pxrInternal_v0_24__pxrReserved__7SdfPathD2Ev.exit.i.i: ; preds = %35, %22, %_ZN32pxrInternal_v0_24__pxrReserved__7TfTokenD2Ev.exit.i.i
  %39 = getelementptr inbounds nuw i8, ptr %6, i64 8
  %40 = load ptr, ptr %39, align 8
  %.not.i.i.i.i.i = icmp eq ptr %40, null
  br i1 %.not.i.i.i.i.i, label %_ZN32pxrInternal_v0_24__pxrReserved__7UsdPrimD2Ev.exit, label %41

41:                                               ; preds = %_ZN32pxrInternal_v0_24__pxrReserved__7SdfPathD2Ev.exit.i.i
  %42 = getelementptr inbounds nuw i8, ptr %40, i64 48
  %43 = atomicrmw sub ptr %42, i64 1 release, align 8
  %.not1.i.i.i.i.i = icmp eq i64 %43, 1
  br i1 %.not1.i.i.i.i.i, label %44, label %_ZN32pxrInternal_v0_24__pxrReserved__7UsdPrimD2Ev.exit

44:                                               ; preds = %41
  call void @_ZN32pxrInternal_v0_24__pxrReserved__12Usd_PrimDataD1Ev(ptr noundef nonnull align 8 dereferenceable(64) %40) #15
  call void @_ZdlPvm(ptr noundef nonnull %40, i64 noundef 64) #16
  br label %_ZN32pxrInternal_v0_24__pxrReserved__7UsdPrimD2Ev.exit

_ZN32pxrInternal_v0_24__pxrReserved__7UsdPrimD2Ev.exit: ; preds = %_ZN32pxrInternal_v0_24__pxrReserved__7SdfPathD2Ev.exit.i.i, %41, %44
  ret void

45:                                               ; preds = %4
  %46 = landingpad { ptr, i32 }
          cleanup
  br label %49

47:                                               ; preds = %9
  %48 = landingpad { ptr, i32 }
          cleanup
  call void @_ZN32pxrInternal_v0_24__pxrReserved__22UsdShadeConnectableAPID1Ev(ptr noundef nonnull align 8 dereferenceable(32) %5) #15
  br label %49

49:                                               ; preds = %47, %45
  %.pn = phi { ptr, i32 } [ %48, %47 ], [ %46, %45 ]
  call void @_ZN32pxrInternal_v0_24__pxrReserved__7UsdPrimD2Ev(ptr noundef nonnull align 8 dereferenceable(32) %6) #15
  resume { ptr, i32 } %.pn
}